target datalayout = "e-m:e-p270:32:32-p271:32:32-p272:64:64-i64:64-i128:128-f80:128-n8:16:32:64-S128"
target triple = "x86_64-pc-linux-gnu"

%struct._zend_executor_globals = type { %struct._zval_struct, %struct._zval_struct, [32 x ptr], ptr, ptr, %struct._zend_array, %struct._zend_array, ptr, i32, i32, ptr, ptr, ptr, ptr, ptr, ptr, i64, ptr, ptr, i32, i32, i64, i32, i32, i32, i8, i8, %struct.zend_atomic_bool_s, %struct.zend_atomic_bool_s, ptr, i64, ptr, ptr, %struct._zend_array, %struct._zend_array, i32, i8, %struct._zval_struct, %struct._zval_struct, %struct._zend_stack, %struct._zend_stack, %struct._zend_stack, ptr, i32, i32, i64, ptr, ptr, ptr, %struct._zend_objects_store, ptr, ptr, ptr, [3 x %struct._zend_op], ptr, i8, i8, i64, i32, i32, ptr, [16 x %struct._HashTableIterator], ptr, %union._zend_function, %struct._zend_op, %struct._zend_array, i64, %struct.zend_get_gc_buffer, ptr, ptr, ptr, i64, i8, i32, ptr, ptr, i64, %struct._zend_call_stack, i64, i64, [6 x ptr] }
%struct.zend_atomic_bool_s = type { i8 }
%struct._zval_struct = type { %union._zend_value, %union.anon, %union.anon.2 }
%union._zend_value = type { i64 }
%union.anon = type { i32 }
%union.anon.2 = type { i32 }
%struct._zend_stack = type { i32, i32, i32, ptr }
%struct._zend_objects_store = type { ptr, i32, i32, i32 }
%struct._HashTableIterator = type { ptr, i32, i32 }
%union._zend_function = type { %struct._zend_op_array }
%struct._zend_op_array = type { i8, [3 x i8], i32, ptr, ptr, ptr, i32, i32, ptr, ptr, ptr, ptr, i32, i32, i32, i32, ptr, ptr, ptr, ptr, ptr, i32, i32, ptr, ptr, ptr, i32, i32, i32, i32, ptr, ptr, [6 x ptr] }
%struct._zend_op = type { ptr, %union._znode_op, %union._znode_op, %union._znode_op, i32, i32, i8, i8, i8, i8 }
%union._znode_op = type { i32 }
%struct._zend_array = type { %struct._zend_refcounted_h, %union.anon.4, i32, %union.anon.6, i32, i32, i32, i32, i64, ptr }
%struct._zend_refcounted_h = type { i32, %union.anon.3 }
%union.anon.3 = type { i32 }
%union.anon.4 = type { i32 }
%union.anon.6 = type { ptr }
%struct.zend_get_gc_buffer = type { ptr, ptr, ptr }
%struct._zend_call_stack = type { ptr, i64 }
%struct._zend_execute_data = type { ptr, ptr, ptr, ptr, %struct._zval_struct, ptr, ptr, ptr, ptr }
%struct._ze_xmlwriter_object = type { ptr, ptr, %struct._zend_object }
%struct._zend_object = type { %struct._zend_refcounted_h, i32, ptr, ptr, ptr, [1 x %struct._zval_struct] }

@xmlwriter_class_entry_ce = internal global ptr null, align 8
@executor_globals = external global %struct._zend_executor_globals, align 8
@.str.4 = private unnamed_addr constant [42 x i8] c"Invalid or uninitialized XMLWriter object\00", align 1
@.str.5 = private unnamed_addr constant [15 x i8] c"attribute name\00", align 1
@.str.6 = private unnamed_addr constant [7 x i8] c"Os!ss!\00", align 1
@.str.7 = private unnamed_addr constant [31 x i8] c"must be a valid %s, \22%s\22 given\00", align 1

; Function Attrs: nounwind uwtable
define internal ptr @php_xmlwriter_fetch_object(ptr noundef %0) #0 {
  %2 = alloca ptr, align 8
  store ptr %0, ptr %2, align 8
  %3 = load ptr, ptr %2, align 8
  %4 = getelementptr inbounds i8, ptr %3, i64 -16
  ret ptr %4
}

; Function Attrs: nounwind uwtable
define hidden void @zif_xmlwriter_start_attribute_ns(ptr noundef %0, ptr noundef %1) #0 {
  %3 = alloca ptr, align 8
  %4 = alloca ptr, align 8
  %5 = alloca ptr, align 8
  %6 = alloca ptr, align 8
  %7 = alloca ptr, align 8
  %8 = alloca ptr, align 8
  %9 = alloca ptr, align 8
  %10 = alloca i64, align 8
  %11 = alloca i64, align 8
  %12 = alloca i64, align 8
  %13 = alloca i32, align 4
  %14 = alloca ptr, align 8
  %15 = alloca ptr, align 8
  store ptr %0, ptr %4, align 8
  store ptr %1, ptr %5, align 8
  %16 = load ptr, ptr %4, align 8
  %17 = getelementptr inbounds %struct._zend_execute_data, ptr %16, i32 0, i32 4
  %18 = getelementptr inbounds %struct._zval_struct, ptr %17, i32 0, i32 2
  %19 = load i32, ptr %18, align 4
  %20 = load ptr, ptr %4, align 8
  %21 = getelementptr inbounds %struct._zend_execute_data, ptr %20, i32 0, i32 4
  store ptr %21, ptr %3, align 8
  %22 = load ptr, ptr %3, align 8
  %23 = getelementptr inbounds %struct._zval_struct, ptr %22, i32 0, i32 1
  %24 = load i8, ptr %23, align 8
  %25 = zext i8 %24 to i32
  %26 = icmp eq i32 %25, 8
  br i1 %26, label %27, label %30

27:                                               ; preds = %2
  %28 = load ptr, ptr %4, align 8
  %29 = getelementptr inbounds %struct._zend_execute_data, ptr %28, i32 0, i32 4
  br label %31

30:                                               ; preds = %2
  br label %31

31:                                               ; preds = %30, %27
  %32 = phi ptr [ %29, %27 ], [ null, %30 ]
  %33 = load ptr, ptr @xmlwriter_class_entry_ce, align 8
  %34 = call i32 (i32, ptr, ptr, ...) @zend_parse_method_parameters(i32 noundef %19, ptr noundef %32, ptr noundef @.str.6, ptr noundef %14, ptr noundef %33, ptr noundef %8, ptr noundef %11, ptr noundef %7, ptr noundef %10, ptr noundef %9, ptr noundef %12)
  %35 = icmp eq i32 %34, -1
  br i1 %35, label %36, label %41

36:                                               ; preds = %31
  br label %37

37:                                               ; preds = %36
  %38 = load ptr, ptr getelementptr inbounds (%struct._zend_executor_globals, ptr @executor_globals, i32 0, i32 50), align 8
  %39 = icmp ne ptr %38, null
  call void @llvm.assume(i1 %39)
  br label %80

40:                                               ; No predecessors!
  br label %41

41:                                               ; preds = %40, %31
  %42 = load ptr, ptr %14, align 8
  %43 = getelementptr inbounds %struct._zval_struct, ptr %42, i32 0, i32 0
  %44 = load ptr, ptr %43, align 8
  %45 = call ptr @php_xmlwriter_fetch_object(ptr noundef %44)
  store ptr %45, ptr %15, align 8
  %46 = load ptr, ptr %15, align 8
  %47 = getelementptr inbounds %struct._ze_xmlwriter_object, ptr %46, i32 0, i32 0
  %48 = load ptr, ptr %47, align 8
  store ptr %48, ptr %6, align 8
  %49 = load ptr, ptr %6, align 8
  %50 = icmp ne ptr %49, null
  br i1 %50, label %56, label %51

51:                                               ; preds = %41
  call void (ptr, ptr, ...) @zend_throw_error(ptr noundef null, ptr noundef @.str.4)
  br label %52

52:                                               ; preds = %51
  %53 = load ptr, ptr getelementptr inbounds (%struct._zend_executor_globals, ptr @executor_globals, i32 0, i32 50), align 8
  %54 = icmp ne ptr %53, null
  call void @llvm.assume(i1 %54)
  br label %80

55:                                               ; No predecessors!
  br label %56

56:                                               ; preds = %55, %41
  %57 = load ptr, ptr %7, align 8
  %58 = call i32 @xmlValidateName(ptr noundef %57, i32 noundef 0)
  %59 = icmp ne i32 %58, 0
  br i1 %59, label %60, label %66

60:                                               ; preds = %56
  %61 = load ptr, ptr %7, align 8
  call void (i32, ptr, ...) @zend_argument_value_error(i32 noundef 3, ptr noundef @.str.7, ptr noundef @.str.5, ptr noundef %61)
  br label %62

62:                                               ; preds = %60
  %63 = load ptr, ptr getelementptr inbounds (%struct._zend_executor_globals, ptr @executor_globals, i32 0, i32 50), align 8
  %64 = icmp ne ptr %63, null
  call void @llvm.assume(i1 %64)
  br label %80

65:                                               ; No predecessors!
  br label %66

66:                                               ; preds = %65, %56
  %67 = load ptr, ptr %6, align 8
  %68 = load ptr, ptr %8, align 8
  %69 = load ptr, ptr %7, align 8
  %70 = load ptr, ptr %9, align 8
  %71 = call i32 @xmlTextWriterStartAttributeNS(ptr noundef %67, ptr noundef %68, ptr noundef %69, ptr noundef %70)
  store i32 %71, ptr %13, align 4
  br label %72

72:                                               ; preds = %66
  br label %73

73:                                               ; preds = %72
  %74 = load i32, ptr %13, align 4
  %75 = icmp ne i32 %74, -1
  %76 = select i1 %75, i32 3, i32 2
  %77 = load ptr, ptr %5, align 8
  %78 = getelementptr inbounds %struct._zval_struct, ptr %77, i32 0, i32 1
  store i32 %76, ptr %78, align 8
  br label %79

79:                                               ; preds = %73
  br label %80

80:                                               ; preds = %79, %62, %52, %37
  ret void
}